target datalayout = "e-m:e-p270:32:32-p271:32:32-p272:64:64-i64:64-i128:128-f80:128-n8:16:32:64-S128"
target triple = "x86_64-pc-linux-gnu"

@.str.75 = private unnamed_addr constant [1 x i8] zeroinitializer, align 1
@git_gettext_enabled = external global i32, align 4
@.str.115 = private unnamed_addr constant [7 x i8] c"hourly\00", align 1
@.str.116 = private unnamed_addr constant [6 x i8] c"daily\00", align 1
@.str.117 = private unnamed_addr constant [7 x i8] c"weekly\00", align 1
@.str.118 = private unnamed_addr constant [13 x i8] c"builtin/gc.c\00", align 1
@.str.209 = private unnamed_addr constant [22 x i8] c"git-maintenance@%s.%s\00", align 1
@.str.215 = private unnamed_addr constant [13 x i8] c"systemd/user\00", align 1
@.str.219 = private unnamed_addr constant [6 x i8] c"timer\00", align 1
@.str.222 = private unnamed_addr constant [20 x i8] c"invalid schedule %d\00", align 1
@.str.228 = private unnamed_addr constant [22 x i8] c"failed to delete '%s'\00", align 1

; Function Attrs: inlinehint nounwind uwtable
define internal i32 @const_error() #6 {
  ret i32 -1
}

; Function Attrs: inlinehint nounwind uwtable
define internal ptr @_(ptr noundef %0) #6 {
  %2 = alloca ptr, align 8
  %3 = alloca ptr, align 8
  store ptr %0, ptr %3, align 8, !tbaa !11
  %4 = load ptr, ptr %3, align 8, !tbaa !11
  %5 = load i8, ptr %4, align 1, !tbaa !93
  %6 = icmp ne i8 %5, 0
  br i1 %6, label %8, label %7

7:                                                ; preds = %1
  store ptr @.str.75, ptr %2, align 8
  br label %16

8:                                                ; preds = %1
  %9 = load i32, ptr @git_gettext_enabled, align 4, !tbaa !4
  %10 = icmp ne i32 %9, 0
  br i1 %10, label %13, label %11

11:                                               ; preds = %8
  %12 = load ptr, ptr %3, align 8, !tbaa !11
  store ptr %12, ptr %2, align 8
  br label %16

13:                                               ; preds = %8
  %14 = load ptr, ptr %3, align 8, !tbaa !11
  %15 = call ptr @dcgettext(ptr noundef null, ptr noundef %14, i32 noundef 5) #11
  store ptr %15, ptr %2, align 8
  br label %16

16:                                               ; preds = %13, %11, %7
  %17 = load ptr, ptr %2, align 8
  ret ptr %17
}

; Function Attrs: inlinehint nounwind uwtable
define internal i32 @is_missing_file_error(i32 noundef %0) #6 {
  %2 = alloca i32, align 4
  store i32 %0, ptr %2, align 4, !tbaa !4
  %3 = load i32, ptr %2, align 4, !tbaa !4
  %4 = icmp eq i32 %3, 2
  br i1 %4, label %8, label %5

5:                                                ; preds = %1
  %6 = load i32, ptr %2, align 4, !tbaa !4
  %7 = icmp eq i32 %6, 20
  br label %8

8:                                                ; preds = %5, %1
  %9 = phi i1 [ true, %1 ], [ %7, %5 ]
  %10 = zext i1 %9 to i32
  ret i32 %10
}

; Function Attrs: nounwind uwtable
define internal ptr @xdg_config_home_systemd(ptr noundef %0) #0 {
  %2 = alloca ptr, align 8
  store ptr %0, ptr %2, align 8, !tbaa !11
  %3 = load ptr, ptr %2, align 8, !tbaa !11
  %4 = call ptr @xdg_config_home_for(ptr noundef @.str.215, ptr noundef %3)
  ret ptr %4
}

; Function Attrs: nounwind uwtable
define internal ptr @get_frequency(i32 noundef %0) #0 {
  %2 = alloca ptr, align 8
  %3 = alloca i32, align 4
  store i32 %0, ptr %3, align 4, !tbaa !4
  %4 = load i32, ptr %3, align 4, !tbaa !4
  switch i32 %4, label %8 [
    i32 3, label %5
    i32 2, label %6
    i32 1, label %7
  ]

5:                                                ; preds = %1
  store ptr @.str.115, ptr %2, align 8
  br label %10

6:                                                ; preds = %1
  store ptr @.str.116, ptr %2, align 8
  br label %10

7:                                                ; preds = %1
  store ptr @.str.117, ptr %2, align 8
  br label %10

8:                                                ; preds = %1
  %9 = load i32, ptr %3, align 4, !tbaa !4
  call void (ptr, i32, ptr, ...) @BUG_fl(ptr noundef @.str.118, i32 noundef 1783, ptr noundef @.str.222, i32 noundef %9) #12
  unreachable

10:                                               ; preds = %7, %6, %5
  %11 = load ptr, ptr %2, align 8
  ret ptr %11
}

; Function Attrs: nounwind uwtable
define internal i32 @systemd_timer_delete_timer_file(i32 noundef %0) #0 {
  %2 = alloca i32, align 4
  %3 = alloca i32, align 4
  %4 = alloca ptr, align 8
  %5 = alloca ptr, align 8
  %6 = alloca ptr, align 8
  store i32 %0, ptr %2, align 4, !tbaa !4
  call void @llvm.lifetime.start.p0(i64 4, ptr %3) #11
  store i32 0, ptr %3, align 4, !tbaa !4
  call void @llvm.lifetime.start.p0(i64 8, ptr %4) #11
  %7 = load i32, ptr %2, align 4, !tbaa !4
  %8 = call ptr @get_frequency(i32 noundef %7)
  store ptr %8, ptr %4, align 8, !tbaa !11
  call void @llvm.lifetime.start.p0(i64 8, ptr %5) #11
  %9 = load ptr, ptr %4, align 8, !tbaa !11
  %10 = call ptr (ptr, ...) @xstrfmt(ptr noundef @.str.209, ptr noundef %9, ptr noundef @.str.219)
  store ptr %10, ptr %5, align 8, !tbaa !11
  call void @llvm.lifetime.start.p0(i64 8, ptr %6) #11
  %11 = load ptr, ptr %5, align 8, !tbaa !11
  %12 = call ptr @xdg_config_home_systemd(ptr noundef %11)
  store ptr %12, ptr %6, align 8, !tbaa !11
  %13 = load ptr, ptr %6, align 8, !tbaa !11
  %14 = call i32 @unlink(ptr noundef %13) #11
  %15 = icmp ne i32 %14, 0
  br i1 %15, label %16, label %26

16:                                               ; preds = %1
  %17 = call ptr @__errno_location() #14
  %18 = load i32, ptr %17, align 4, !tbaa !4
  %19 = call i32 @is_missing_file_error(i32 noundef %18)
  %20 = icmp ne i32 %19, 0
  br i1 %20, label %26, label %21

21:                                               ; preds = %16
  %22 = call ptr @_(ptr noundef @.str.228)
  %23 = load ptr, ptr %6, align 8, !tbaa !11
  %24 = call i32 (ptr, ...) @error_errno(ptr noundef %22, ptr noundef %23)
  %25 = call i32 @const_error()
  store i32 %25, ptr %3, align 4, !tbaa !4
  br label %26

26:                                               ; preds = %21, %16, %1
  %27 = load ptr, ptr %6, align 8, !tbaa !11
  call void @free(ptr noundef %27) #11
  %28 = load ptr, ptr %5, align 8, !tbaa !11
  call void @free(ptr noundef %28) #11
  %29 = load i32, ptr %3, align 4, !tbaa !4
  call void @llvm.lifetime.end.p0(i64 8, ptr %6) #11
  call void @llvm.lifetime.end.p0(i64 8, ptr %5) #11
  call void @llvm.lifetime.end.p0(i64 8, ptr %4) #11
  call void @llvm.lifetime.end.p0(i64 4, ptr %3) #11
  ret i32 %29
}