; Function Attrs: nounwind uwtable
define internal fastcc range(i32 -1, 1) i32 @systemd_timer_delete_timer_file(i32 noundef range(i32 1, 4) %0) unnamed_addr #0 {
switch.lookup:
  %switch.tableidx = add nsw i32 %0, -1
  %1 = sext i32 %switch.tableidx to i64
  %switch.gep = getelementptr inbounds [3 x ptr], ptr @switch.table.schtasks_schedule_task, i64 0, i64 %1
  %switch.load = load ptr, ptr %switch.gep, align 8
  %2 = tail call ptr (ptr, ...) @xstrfmt(ptr noundef nonnull @.str.209, ptr noundef nonnull %switch.load, ptr noundef nonnull @.str.219) #21
  %3 = tail call ptr @xdg_config_home_for(ptr noundef nonnull @.str.215, ptr noundef %2) #21
  %4 = tail call i32 @unlink(ptr noundef %3) #21
  %.not = icmp eq i32 %4, 0
  br i1 %.not, label %13, label %5

5:                                                ; preds = %switch.lookup
  %6 = tail call ptr @__errno_location() #24
  %7 = load i32, ptr %6, align 4, !tbaa !4
  switch i32 %7, label %8 [
    i32 20, label %13
    i32 2, label %13
  ]

8:                                                ; preds = %5
  %9 = load i32, ptr @git_gettext_enabled, align 4, !tbaa !4
  %.not4.i = icmp eq i32 %9, 0
  br i1 %.not4.i, label %_.exit, label %10

10:                                               ; preds = %8
  %11 = tail call ptr @dcgettext(ptr noundef null, ptr noundef nonnull @.str.228, i32 noundef 5) #21
  br label %_.exit

_.exit:                                           ; preds = %8, %10
  %.0.i8 = phi ptr [ %11, %10 ], [ @.str.228, %8 ]
  %12 = tail call i32 (ptr, ...) @error_errno(ptr noundef %.0.i8, ptr noundef %3) #21
  br label %13

13:                                               ; preds = %5, %5, %_.exit, %switch.lookup
  %.0 = phi i32 [ 0, %5 ], [ -1, %_.exit ], [ 0, %switch.lookup ], [ 0, %5 ]
  tail call void @free(ptr noundef %3) #21
  tail call void @free(ptr noundef %2) #21
  ret i32 %.0
}